; Function Attrs: mustprogress nofree norecurse nosync nounwind willreturn memory(none) uwtable
define dso_local { i64, i64 } @i128_neg(i64 %0, i64 %1) local_unnamed_addr #1 {
  %.not = icmp eq i64 %1, 0
  br i1 %.not, label %10, label %3

3:                                                ; preds = %2
  %4 = xor i64 %0, -1
  %5 = xor i64 %1, -1
  %6 = sub i64 0, %1
  %7 = icmp ult i64 %6, %5
  %8 = zext i1 %7 to i64
  %9 = add i64 %8, %4
  br label %10

10:                                               ; preds = %2, %3
  %.pn11 = phi i64 [ %9, %3 ], [ %0, %2 ]
  %.pn = phi i64 [ %6, %3 ], [ 0, %2 ]
  %.fca.0.insert.i8.pn = insertvalue { i64, i64 } poison, i64 %.pn11, 0
  %.fca.1.insert.merged = insertvalue { i64, i64 } %.fca.0.insert.i8.pn, i64 %.pn, 1
  ret { i64, i64 } %.fca.1.insert.merged
}